target datalayout = "e-m:e-p270:32:32-p271:32:32-p272:64:64-i64:64-i128:128-f80:128-n8:16:32:64-S128"
target triple = "x86_64-pc-linux-gnu"

%struct._output_fields = type { i8, i8, i8, i8, i8, ptr, ptr, ptr, ptr, ptr, i8, i8, i8 }
%struct._GPtrArray = type { ptr, i32 }

; Function Attrs: null_pointer_is_valid sspstrong uwtable
define void @output_fields_free(ptr noundef %0) #0 {
  %2 = alloca ptr, align 8
  %3 = alloca i64, align 8
  %4 = alloca ptr, align 8
  store ptr %0, ptr %2, align 8
  br label %5

5:                                                ; preds = %1
  br label %6

6:                                                ; preds = %5
  %7 = load ptr, ptr %2, align 8
  %8 = getelementptr inbounds nuw %struct._output_fields, ptr %7, i32 0, i32 5
  %9 = load ptr, ptr %8, align 8
  %10 = icmp ne ptr null, %9
  br i1 %10, label %11, label %66

11:                                               ; preds = %6
  call void @llvm.lifetime.start.p0(i64 8, ptr %3) #15
  %12 = load ptr, ptr %2, align 8
  %13 = getelementptr inbounds nuw %struct._output_fields, ptr %12, i32 0, i32 7
  %14 = load ptr, ptr %13, align 8
  %15 = icmp ne ptr null, %14
  br i1 %15, label %16, label %20

16:                                               ; preds = %11
  %17 = load ptr, ptr %2, align 8
  %18 = getelementptr inbounds nuw %struct._output_fields, ptr %17, i32 0, i32 7
  %19 = load ptr, ptr %18, align 8
  call void @g_hash_table_destroy(ptr noundef %19)
  br label %20

20:                                               ; preds = %16, %11
  %21 = load ptr, ptr %2, align 8
  %22 = getelementptr inbounds nuw %struct._output_fields, ptr %21, i32 0, i32 6
  %23 = load ptr, ptr %22, align 8
  %24 = icmp ne ptr null, %23
  br i1 %24, label %25, label %29

25:                                               ; preds = %20
  %26 = load ptr, ptr %2, align 8
  %27 = getelementptr inbounds nuw %struct._output_fields, ptr %26, i32 0, i32 6
  %28 = load ptr, ptr %27, align 8
  call void @g_ptr_array_unref(ptr noundef %28)
  br label %29

29:                                               ; preds = %25, %20
  %30 = load ptr, ptr %2, align 8
  %31 = getelementptr inbounds nuw %struct._output_fields, ptr %30, i32 0, i32 8
  %32 = load ptr, ptr %31, align 8
  %33 = icmp ne ptr null, %32
  br i1 %33, label %34, label %38

34:                                               ; preds = %29
  %35 = load ptr, ptr %2, align 8
  %36 = getelementptr inbounds nuw %struct._output_fields, ptr %35, i32 0, i32 8
  %37 = load ptr, ptr %36, align 8
  call void @g_free(ptr noundef %37)
  br label %38

38:                                               ; preds = %34, %29
  store i64 0, ptr %3, align 8
  br label %39

39:                                               ; preds = %58, %38
  %40 = load i64, ptr %3, align 8
  %41 = load ptr, ptr %2, align 8
  %42 = getelementptr inbounds nuw %struct._output_fields, ptr %41, i32 0, i32 5
  %43 = load ptr, ptr %42, align 8
  %44 = getelementptr inbounds nuw %struct._GPtrArray, ptr %43, i32 0, i32 1
  %45 = load i32, ptr %44, align 8
  %46 = zext i32 %45 to i64
  %47 = icmp ult i64 %40, %46
  br i1 %47, label %48, label %61

48:                                               ; preds = %39
  call void @llvm.lifetime.start.p0(i64 8, ptr %4) #15
  %49 = load ptr, ptr %2, align 8
  %50 = getelementptr inbounds nuw %struct._output_fields, ptr %49, i32 0, i32 5
  %51 = load ptr, ptr %50, align 8
  %52 = getelementptr inbounds nuw %struct._GPtrArray, ptr %51, i32 0, i32 0
  %53 = load ptr, ptr %52, align 8
  %54 = load i64, ptr %3, align 8
  %55 = getelementptr ptr, ptr %53, i64 %54
  %56 = load ptr, ptr %55, align 8
  store ptr %56, ptr %4, align 8
  %57 = load ptr, ptr %4, align 8
  call void @g_free(ptr noundef %57)
  call void @llvm.lifetime.end.p0(i64 8, ptr %4) #15
  br label %58

58:                                               ; preds = %48
  %59 = load i64, ptr %3, align 8
  %60 = add i64 %59, 1
  store i64 %60, ptr %3, align 8
  br label %39, !llvm.loop !33

61:                                               ; preds = %39
  %62 = load ptr, ptr %2, align 8
  %63 = getelementptr inbounds nuw %struct._output_fields, ptr %62, i32 0, i32 5
  %64 = load ptr, ptr %63, align 8
  %65 = call ptr @g_ptr_array_free(ptr noundef %64, i32 noundef 1)
  call void @llvm.lifetime.end.p0(i64 8, ptr %3) #15
  br label %66

66:                                               ; preds = %61, %6
  %67 = load ptr, ptr %2, align 8
  call void @g_free(ptr noundef %67)
  ret void
}