; Function Attrs: null_pointer_is_valid sspstrong uwtable
define void @output_fields_free(ptr noundef %0) local_unnamed_addr #0 {
  %2 = getelementptr inbounds nuw i8, ptr %0, i64 8
  %3 = load ptr, ptr %2, align 8
  %.not = icmp eq ptr %3, null
  br i1 %.not, label %31, label %4

4:                                                ; preds = %1
  %5 = getelementptr inbounds nuw i8, ptr %0, i64 24
  %6 = load ptr, ptr %5, align 8
  %.not17 = icmp eq ptr %6, null
  br i1 %.not17, label %8, label %7

7:                                                ; preds = %4
  tail call void @g_hash_table_destroy(ptr noundef nonnull %6)
  br label %8

8:                                                ; preds = %7, %4
  %9 = getelementptr inbounds nuw i8, ptr %0, i64 16
  %10 = load ptr, ptr %9, align 8
  %.not18 = icmp eq ptr %10, null
  br i1 %.not18, label %12, label %11

11:                                               ; preds = %8
  tail call void @g_ptr_array_unref(ptr noundef nonnull %10)
  br label %12

12:                                               ; preds = %11, %8
  %13 = getelementptr inbounds nuw i8, ptr %0, i64 32
  %14 = load ptr, ptr %13, align 8
  %.not19 = icmp eq ptr %14, null
  br i1 %.not19, label %16, label %15

15:                                               ; preds = %12
  tail call void @g_free(ptr noundef nonnull %14)
  br label %16

16:                                               ; preds = %15, %12
  %17 = load ptr, ptr %2, align 8
  %18 = getelementptr inbounds nuw i8, ptr %17, i64 8
  %19 = load i32, ptr %18, align 8
  %.not21 = icmp eq i32 %19, 0
  br i1 %.not21, label %._crit_edge, label %.lr.ph

.lr.ph:                                           ; preds = %16, %.lr.ph
  %20 = phi ptr [ %25, %.lr.ph ], [ %17, %16 ]
  %.020 = phi i64 [ %24, %.lr.ph ], [ 0, %16 ]
  %21 = load ptr, ptr %20, align 8
  %22 = getelementptr ptr, ptr %21, i64 %.020
  %23 = load ptr, ptr %22, align 8
  tail call void @g_free(ptr noundef %23)
  %24 = add nuw nsw i64 %.020, 1
  %25 = load ptr, ptr %2, align 8
  %26 = getelementptr inbounds nuw i8, ptr %25, i64 8
  %27 = load i32, ptr %26, align 8
  %28 = zext i32 %27 to i64
  %29 = icmp samesign ult i64 %24, %28
  br i1 %29, label %.lr.ph, label %._crit_edge, !llvm.loop !38

._crit_edge:                                      ; preds = %.lr.ph, %16
  %.lcssa = phi ptr [ %17, %16 ], [ %25, %.lr.ph ]
  %30 = tail call ptr @g_ptr_array_free(ptr noundef %.lcssa, i32 noundef 1)
  br label %31

31:                                               ; preds = %._crit_edge, %1
  tail call void @g_free(ptr noundef %0)
  ret void
}